target datalayout = "e-m:e-p270:32:32-p271:32:32-p272:64:64-i64:64-i128:128-f80:128-n8:16:32:64-S128"
target triple = "x86_64-pc-linux-gnu"

%struct.parser_state = type { i64, i64, ptr, ptr, ptr, ptr, %struct.tokens, i32 }
%struct.tokens = type { ptr, i64, i64 }
%struct.scope = type { %struct.cli_hashtable, ptr, ptr, i32, i32, i32, i32 }
%struct.cli_hashtable = type { ptr, i64, i64, i64 }

@.str.11 = private unnamed_addr constant [29 x i8] c"JS-Norm: cli_js_init() done\0A\00", align 1

; Function Attrs: nounwind uwtable
define internal ptr @scope_done(ptr noundef %0) #0 {
  %2 = alloca ptr, align 8
  %3 = alloca ptr, align 8
  store ptr %0, ptr %2, align 8, !tbaa !31
  call void @llvm.lifetime.start.p0(i64 8, ptr %3) #13
  %4 = load ptr, ptr %2, align 8, !tbaa !31
  %5 = getelementptr inbounds nuw %struct.scope, ptr %4, i32 0, i32 1
  %6 = load ptr, ptr %5, align 8, !tbaa !42
  store ptr %6, ptr %3, align 8, !tbaa !31
  %7 = load ptr, ptr %2, align 8, !tbaa !31
  %8 = getelementptr inbounds nuw %struct.scope, ptr %7, i32 0, i32 0
  call void @cli_hashtab_clear(ptr noundef %8)
  %9 = load ptr, ptr %2, align 8, !tbaa !31
  %10 = getelementptr inbounds nuw %struct.scope, ptr %9, i32 0, i32 0
  %11 = getelementptr inbounds nuw %struct.cli_hashtable, ptr %10, i32 0, i32 0
  %12 = load ptr, ptr %11, align 8, !tbaa !83
  call void @free(ptr noundef %12) #13
  %13 = load ptr, ptr %2, align 8, !tbaa !31
  call void @free(ptr noundef %13) #13
  %14 = load ptr, ptr %3, align 8, !tbaa !31
  call void @llvm.lifetime.end.p0(i64 8, ptr %3) #13
  ret ptr %14
}

; Function Attrs: nounwind uwtable
define internal i32 @yylex_init(ptr noundef %0) #0 {
  %2 = alloca ptr, align 8
  store ptr %0, ptr %2, align 8, !tbaa !81
  %3 = call noalias ptr @calloc(i64 noundef 1, i64 noundef 80) #17
  %4 = load ptr, ptr %2, align 8, !tbaa !81
  store ptr %3, ptr %4, align 8, !tbaa !54
  %5 = load ptr, ptr %2, align 8, !tbaa !81
  %6 = load ptr, ptr %5, align 8, !tbaa !54
  %7 = icmp ne ptr %6, null
  %8 = select i1 %7, i32 0, i32 -1
  ret i32 %8
}

; Function Attrs: nounwind uwtable
define internal ptr @scope_new(ptr noundef %0) #0 {
  %2 = alloca ptr, align 8
  %3 = alloca ptr, align 8
  %4 = alloca ptr, align 8
  %5 = alloca ptr, align 8
  %6 = alloca i32, align 4
  store ptr %0, ptr %3, align 8, !tbaa !3
  call void @llvm.lifetime.start.p0(i64 8, ptr %4) #13
  %7 = load ptr, ptr %3, align 8, !tbaa !3
  %8 = getelementptr inbounds nuw %struct.parser_state, ptr %7, i32 0, i32 3
  %9 = load ptr, ptr %8, align 8, !tbaa !30
  store ptr %9, ptr %4, align 8, !tbaa !31
  call void @llvm.lifetime.start.p0(i64 8, ptr %5) #13
  %10 = call noalias ptr @calloc(i64 noundef 1, i64 noundef 64) #17
  store ptr %10, ptr %5, align 8, !tbaa !31
  %11 = load ptr, ptr %5, align 8, !tbaa !31
  %12 = icmp ne ptr %11, null
  br i1 %12, label %14, label %13

13:                                               ; preds = %1
  store ptr null, ptr %2, align 8
  store i32 1, ptr %6, align 4
  br label %39

14:                                               ; preds = %1
  %15 = load ptr, ptr %5, align 8, !tbaa !31
  %16 = getelementptr inbounds nuw %struct.scope, ptr %15, i32 0, i32 0
  %17 = call i32 @cli_hashtab_init(ptr noundef %16, i64 noundef 10)
  %18 = icmp ult i32 %17, 0
  br i1 %18, label %19, label %21

19:                                               ; preds = %14
  %20 = load ptr, ptr %5, align 8, !tbaa !31
  call void @free(ptr noundef %20) #13
  store ptr null, ptr %2, align 8
  store i32 1, ptr %6, align 4
  br label %39

21:                                               ; preds = %14
  %22 = load ptr, ptr %4, align 8, !tbaa !31
  %23 = load ptr, ptr %5, align 8, !tbaa !31
  %24 = getelementptr inbounds nuw %struct.scope, ptr %23, i32 0, i32 1
  store ptr %22, ptr %24, align 8, !tbaa !42
  %25 = load ptr, ptr %5, align 8, !tbaa !31
  %26 = getelementptr inbounds nuw %struct.scope, ptr %25, i32 0, i32 3
  store i32 0, ptr %26, align 8, !tbaa !34
  %27 = load ptr, ptr %3, align 8, !tbaa !3
  %28 = getelementptr inbounds nuw %struct.parser_state, ptr %27, i32 0, i32 4
  %29 = load ptr, ptr %28, align 8, !tbaa !67
  %30 = load ptr, ptr %5, align 8, !tbaa !31
  %31 = getelementptr inbounds nuw %struct.scope, ptr %30, i32 0, i32 2
  store ptr %29, ptr %31, align 8, !tbaa !68
  %32 = load ptr, ptr %5, align 8, !tbaa !31
  %33 = load ptr, ptr %3, align 8, !tbaa !3
  %34 = getelementptr inbounds nuw %struct.parser_state, ptr %33, i32 0, i32 4
  store ptr %32, ptr %34, align 8, !tbaa !67
  %35 = load ptr, ptr %5, align 8, !tbaa !31
  %36 = load ptr, ptr %3, align 8, !tbaa !3
  %37 = getelementptr inbounds nuw %struct.parser_state, ptr %36, i32 0, i32 3
  store ptr %35, ptr %37, align 8, !tbaa !30
  %38 = load ptr, ptr %5, align 8, !tbaa !31
  store ptr %38, ptr %2, align 8
  store i32 1, ptr %6, align 4
  br label %39

39:                                               ; preds = %21, %19, %13
  call void @llvm.lifetime.end.p0(i64 8, ptr %5) #13
  call void @llvm.lifetime.end.p0(i64 8, ptr %4) #13
  %40 = load ptr, ptr %2, align 8
  ret ptr %40
}

; Function Attrs: nounwind uwtable
define ptr @cli_js_init() #0 {
  %1 = alloca ptr, align 8
  %2 = alloca ptr, align 8
  %3 = alloca i32, align 4
  call void @llvm.lifetime.start.p0(i64 8, ptr %2) #13
  %4 = call noalias ptr @calloc(i64 noundef 1, i64 noundef 80) #17
  store ptr %4, ptr %2, align 8, !tbaa !3
  %5 = load ptr, ptr %2, align 8, !tbaa !3
  %6 = icmp ne ptr %5, null
  br i1 %6, label %8, label %7

7:                                                ; preds = %0
  store ptr null, ptr %1, align 8
  store i32 1, ptr %3, align 4
  br label %32

8:                                                ; preds = %0
  %9 = load ptr, ptr %2, align 8, !tbaa !3
  %10 = call ptr @scope_new(ptr noundef %9)
  %11 = icmp ne ptr %10, null
  br i1 %11, label %14, label %12

12:                                               ; preds = %8
  %13 = load ptr, ptr %2, align 8, !tbaa !3
  call void @free(ptr noundef %13) #13
  store ptr null, ptr %1, align 8
  store i32 1, ptr %3, align 4
  br label %32

14:                                               ; preds = %8
  %15 = load ptr, ptr %2, align 8, !tbaa !3
  %16 = getelementptr inbounds nuw %struct.parser_state, ptr %15, i32 0, i32 3
  %17 = load ptr, ptr %16, align 8, !tbaa !30
  %18 = load ptr, ptr %2, align 8, !tbaa !3
  %19 = getelementptr inbounds nuw %struct.parser_state, ptr %18, i32 0, i32 2
  store ptr %17, ptr %19, align 8, !tbaa !32
  %20 = load ptr, ptr %2, align 8, !tbaa !3
  %21 = getelementptr inbounds nuw %struct.parser_state, ptr %20, i32 0, i32 5
  %22 = call i32 @yylex_init(ptr noundef %21)
  %23 = icmp ne i32 %22, 0
  br i1 %23, label %24, label %30

24:                                               ; preds = %14
  %25 = load ptr, ptr %2, align 8, !tbaa !3
  %26 = getelementptr inbounds nuw %struct.parser_state, ptr %25, i32 0, i32 2
  %27 = load ptr, ptr %26, align 8, !tbaa !32
  %28 = call ptr @scope_done(ptr noundef %27)
  %29 = load ptr, ptr %2, align 8, !tbaa !3
  call void @free(ptr noundef %29) #13
  store ptr null, ptr %1, align 8
  store i32 1, ptr %3, align 4
  br label %32

30:                                               ; preds = %14
  call void (ptr, ...) @cli_dbgmsg(ptr noundef @.str.11)
  %31 = load ptr, ptr %2, align 8, !tbaa !3
  store ptr %31, ptr %1, align 8
  store i32 1, ptr %3, align 4
  br label %32

32:                                               ; preds = %30, %24, %12, %7
  call void @llvm.lifetime.end.p0(i64 8, ptr %2) #13
  %33 = load ptr, ptr %1, align 8
  ret ptr %33
}