; Function Attrs: nounwind uwtable
define noalias noundef ptr @cli_js_init() local_unnamed_addr #0 {
  %1 = tail call noalias dereferenceable_or_null(80) ptr @calloc(i64 noundef 1, i64 noundef 80) #23
  %.not = icmp eq ptr %1, null
  br i1 %.not, label %16, label %2

2:                                                ; preds = %0
  %3 = tail call noalias dereferenceable_or_null(64) ptr @calloc(i64 noundef 1, i64 noundef 64) #23
  %.not.i = icmp eq ptr %3, null
  br i1 %.not.i, label %4, label %5

4:                                                ; preds = %2
  tail call void @free(ptr noundef nonnull %1) #20
  br label %16

5:                                                ; preds = %2
  %6 = getelementptr inbounds nuw i8, ptr %1, i64 24
  %7 = tail call i32 @cli_hashtab_init(ptr noundef nonnull %3, i64 noundef 10) #20
  %8 = getelementptr inbounds nuw i8, ptr %3, i64 32
  %9 = getelementptr inbounds nuw i8, ptr %1, i64 32
  tail call void @llvm.memset.p0.i64(ptr noundef nonnull align 8 dereferenceable(20) %8, i8 0, i64 20, i1 false)
  store ptr %3, ptr %9, align 8, !tbaa !68
  store ptr %3, ptr %6, align 8, !tbaa !38
  %10 = getelementptr inbounds nuw i8, ptr %1, i64 16
  store ptr %3, ptr %10, align 8, !tbaa !44
  %11 = getelementptr inbounds nuw i8, ptr %1, i64 40
  %12 = tail call noalias dereferenceable_or_null(80) ptr @calloc(i64 noundef 1, i64 noundef 80) #23
  store ptr %12, ptr %11, align 8, !tbaa !81
  %.not.i13.not = icmp eq ptr %12, null
  br i1 %.not.i13.not, label %13, label %15

13:                                               ; preds = %5
  tail call void @cli_hashtab_clear(ptr noundef nonnull %3) #20
  %14 = load ptr, ptr %3, align 8, !tbaa !80
  tail call void @free(ptr noundef %14) #20
  tail call void @free(ptr noundef nonnull %3) #20
  tail call void @free(ptr noundef nonnull %1) #20
  br label %16

15:                                               ; preds = %5
  tail call void (ptr, ...) @cli_dbgmsg(ptr noundef nonnull @.str.11) #20
  br label %16

16:                                               ; preds = %0, %15, %13, %4
  %.0 = phi ptr [ null, %13 ], [ %1, %15 ], [ null, %4 ], [ null, %0 ]
  ret ptr %.0
}